target datalayout = "e-m:e-p270:32:32-p271:32:32-p272:64:64-i64:64-i128:128-f80:128-n8:16:32:64-S128"
target triple = "x86_64-pc-linux-gnu"

%struct.GVJ_s = type { ptr, ptr, ptr, ptr, ptr, ptr, i32, ptr, ptr, ptr, ptr, i64, i64, ptr, i32, %struct.gvplugin_active_render_s, %struct.gvplugin_active_device_s, %struct.gvplugin_active_loadimage_t, ptr, %struct.pointf_s, i8, ptr, i32, ptr, i8, ptr, i32, i32, i32, %struct.point, %struct.point, %struct.point, %struct.point, %struct.point, i32, %struct.boxf, %struct.pointf_s, %struct.boxf, %struct.boxf, %struct.pointf_s, %struct.pointf_s, double, i32, %struct.pointf_s, %struct.boxf, %struct.pointf_s, %struct.pointf_s, i32, i32, %struct.box, %struct.box, %struct.pointf_s, %struct.pointf_s, %struct.pointf_s, i8, i8, i8, i8, i8, i8, %struct.pointf_s, %struct.pointf_s, ptr, ptr, ptr, ptr, ptr, ptr, i64, ptr }
%struct.gvplugin_active_render_s = type { ptr, i32, ptr, ptr }
%struct.gvplugin_active_device_s = type { ptr, i32, ptr, ptr }
%struct.gvplugin_active_loadimage_t = type { ptr, i32, ptr }
%struct.point = type { i32, i32 }
%struct.boxf = type { %struct.pointf_s, %struct.pointf_s }
%struct.box = type { %struct.point, %struct.point }
%struct.pointf_s = type { double, double }
%struct.obj_state_s = type { ptr, i32, %union.anon, i32, %struct.color_s, %struct.color_s, %struct.color_s, i32, double, i32, i32, double, ptr, double, double, double, ptr, ptr, ptr, ptr, ptr, ptr, ptr, ptr, ptr, ptr, ptr, ptr, ptr, ptr, ptr, ptr, ptr, i16, i32, i64, ptr, i64, ptr, ptr, i32, ptr, i32, ptr }
%union.anon = type { ptr }
%struct.color_s = type { %union.anon.0, i32 }
%union.anon.0 = type { [4 x double] }
%struct.colorsegs_t = type { ptr, i64, i64, i64 }
%struct.colorseg_t = type { ptr, double, i8 }
%struct.Ppoly_t = type { ptr, i64 }

; Function Attrs: nounwind uwtable
define internal void @freeSeg(ptr noundef byval(%struct.colorseg_t) align 8 %0) #0 {
  %2 = getelementptr inbounds nuw %struct.colorseg_t, ptr %0, i32 0, i32 0
  %3 = load ptr, ptr %2, align 8, !tbaa !107
  call void @free(ptr noundef %3) #15
  ret void
}

; Function Attrs: inlinehint nounwind uwtable
define internal void @colorsegs_clear(ptr noundef %0) #3 {
  %2 = alloca ptr, align 8
  %3 = alloca i64, align 8
  %4 = alloca %struct.colorseg_t, align 8
  store ptr %0, ptr %2, align 8, !tbaa !8
  call void @llvm.lifetime.start.p0(i64 8, ptr %3) #15
  store i64 0, ptr %3, align 8, !tbaa !49
  br label %5

5:                                                ; preds = %18, %1
  %6 = load i64, ptr %3, align 8, !tbaa !49
  %7 = load ptr, ptr %2, align 8, !tbaa !8
  %8 = getelementptr inbounds nuw %struct.colorsegs_t, ptr %7, i32 0, i32 2
  %9 = load i64, ptr %8, align 8, !tbaa !127
  %10 = icmp ult i64 %6, %9
  br i1 %10, label %12, label %11

11:                                               ; preds = %5
  call void @llvm.lifetime.end.p0(i64 8, ptr %3) #15
  br label %21

12:                                               ; preds = %5
  %13 = load ptr, ptr %2, align 8, !tbaa !8
  %14 = load i64, ptr %3, align 8, !tbaa !49
  call void @colorsegs_get(ptr dead_on_unwind writable sret(%struct.colorseg_t) align 8 %4, ptr noundef %13, i64 noundef %14)
  call void @freeSeg(ptr noundef byval(%struct.colorseg_t) align 8 %4)
  br label %15

15:                                               ; preds = %12
  br label %16

16:                                               ; preds = %15
  br label %17

17:                                               ; preds = %16
  br label %18

18:                                               ; preds = %17
  %19 = load i64, ptr %3, align 8, !tbaa !49
  %20 = add i64 %19, 1
  store i64 %20, ptr %3, align 8, !tbaa !49
  br label %5, !llvm.loop !358

21:                                               ; preds = %11
  %22 = load ptr, ptr %2, align 8, !tbaa !8
  %23 = getelementptr inbounds nuw %struct.colorsegs_t, ptr %22, i32 0, i32 2
  store i64 0, ptr %23, align 8, !tbaa !127
  %24 = load ptr, ptr %2, align 8, !tbaa !8
  %25 = getelementptr inbounds nuw %struct.colorsegs_t, ptr %24, i32 0, i32 1
  store i64 0, ptr %25, align 8, !tbaa !130
  ret void
}

; Function Attrs: inlinehint nounwind uwtable
define internal void @colorsegs_free(ptr noundef %0) #3 {
  %2 = alloca ptr, align 8
  store ptr %0, ptr %2, align 8, !tbaa !8
  %3 = load ptr, ptr %2, align 8, !tbaa !8
  call void @colorsegs_clear(ptr noundef %3)
  %4 = load ptr, ptr %2, align 8, !tbaa !8
  %5 = getelementptr inbounds nuw %struct.colorsegs_t, ptr %4, i32 0, i32 0
  %6 = load ptr, ptr %5, align 8, !tbaa !129
  call void @free(ptr noundef %6) #15
  %7 = load ptr, ptr %2, align 8, !tbaa !8
  call void @llvm.memset.p0.i64(ptr align 8 %7, i8 0, i64 32, i1 false)
  ret void
}

; Function Attrs: inlinehint nounwind uwtable
define internal void @colorsegs_get(ptr dead_on_unwind noalias writable sret(%struct.colorseg_t) align 8 %0, ptr noundef %1, i64 noundef %2) #3 {
  %4 = alloca ptr, align 8
  %5 = alloca i64, align 8
  store ptr %1, ptr %4, align 8, !tbaa !8
  store i64 %2, ptr %5, align 8, !tbaa !49
  %6 = load ptr, ptr %4, align 8, !tbaa !8
  %7 = getelementptr inbounds nuw %struct.colorsegs_t, ptr %6, i32 0, i32 0
  %8 = load ptr, ptr %7, align 8, !tbaa !129
  %9 = load ptr, ptr %4, align 8, !tbaa !8
  %10 = getelementptr inbounds nuw %struct.colorsegs_t, ptr %9, i32 0, i32 1
  %11 = load i64, ptr %10, align 8, !tbaa !130
  %12 = load i64, ptr %5, align 8, !tbaa !49
  %13 = add i64 %11, %12
  %14 = load ptr, ptr %4, align 8, !tbaa !8
  %15 = getelementptr inbounds nuw %struct.colorsegs_t, ptr %14, i32 0, i32 3
  %16 = load i64, ptr %15, align 8, !tbaa !131
  %17 = urem i64 %13, %16
  %18 = getelementptr inbounds nuw %struct.colorseg_t, ptr %8, i64 %17
  call void @llvm.memcpy.p0.p0.i64(ptr align 8 %0, ptr align 8 %18, i64 24, i1 false), !tbaa.struct !132
  ret void
}

; Function Attrs: inlinehint nounwind uwtable
define internal i64 @colorsegs_size(ptr noundef %0) #3 {
  %2 = alloca ptr, align 8
  store ptr %0, ptr %2, align 8, !tbaa !8
  %3 = load ptr, ptr %2, align 8, !tbaa !8
  %4 = getelementptr inbounds nuw %struct.colorsegs_t, ptr %3, i32 0, i32 2
  %5 = load i64, ptr %4, align 8, !tbaa !127
  ret i64 %5
}

; Function Attrs: inlinehint nounwind uwtable
define internal { double, double } @sub_pointf(double %0, double %1, double %2, double %3) #3 {
  %5 = alloca %struct.pointf_s, align 8
  %6 = alloca %struct.pointf_s, align 8
  %7 = alloca %struct.pointf_s, align 8
  %8 = getelementptr inbounds nuw { double, double }, ptr %6, i32 0, i32 0
  store double %0, ptr %8, align 8
  %9 = getelementptr inbounds nuw { double, double }, ptr %6, i32 0, i32 1
  store double %1, ptr %9, align 8
  %10 = getelementptr inbounds nuw { double, double }, ptr %7, i32 0, i32 0
  store double %2, ptr %10, align 8
  %11 = getelementptr inbounds nuw { double, double }, ptr %7, i32 0, i32 1
  store double %3, ptr %11, align 8
  %12 = getelementptr inbounds nuw %struct.pointf_s, ptr %6, i32 0, i32 0
  %13 = load double, ptr %12, align 8, !tbaa !110
  %14 = getelementptr inbounds nuw %struct.pointf_s, ptr %7, i32 0, i32 0
  %15 = load double, ptr %14, align 8, !tbaa !110
  %16 = fsub double %13, %15
  %17 = getelementptr inbounds nuw %struct.pointf_s, ptr %5, i32 0, i32 0
  store double %16, ptr %17, align 8, !tbaa !110
  %18 = getelementptr inbounds nuw %struct.pointf_s, ptr %6, i32 0, i32 1
  %19 = load double, ptr %18, align 8, !tbaa !111
  %20 = getelementptr inbounds nuw %struct.pointf_s, ptr %7, i32 0, i32 1
  %21 = load double, ptr %20, align 8, !tbaa !111
  %22 = fsub double %19, %21
  %23 = getelementptr inbounds nuw %struct.pointf_s, ptr %5, i32 0, i32 1
  store double %22, ptr %23, align 8, !tbaa !111
  %24 = load { double, double }, ptr %5, align 8
  ret { double, double } %24
}

; Function Attrs: inlinehint nounwind uwtable
define internal { double, double } @mid_pointf(double %0, double %1, double %2, double %3) #3 {
  %5 = alloca %struct.pointf_s, align 8
  %6 = alloca %struct.pointf_s, align 8
  %7 = alloca %struct.pointf_s, align 8
  %8 = getelementptr inbounds nuw { double, double }, ptr %6, i32 0, i32 0
  store double %0, ptr %8, align 8
  %9 = getelementptr inbounds nuw { double, double }, ptr %6, i32 0, i32 1
  store double %1, ptr %9, align 8
  %10 = getelementptr inbounds nuw { double, double }, ptr %7, i32 0, i32 0
  store double %2, ptr %10, align 8
  %11 = getelementptr inbounds nuw { double, double }, ptr %7, i32 0, i32 1
  store double %3, ptr %11, align 8
  %12 = getelementptr inbounds nuw %struct.pointf_s, ptr %6, i32 0, i32 0
  %13 = load double, ptr %12, align 8, !tbaa !110
  %14 = getelementptr inbounds nuw %struct.pointf_s, ptr %7, i32 0, i32 0
  %15 = load double, ptr %14, align 8, !tbaa !110
  %16 = fadd double %13, %15
  %17 = fdiv double %16, 2.000000e+00
  %18 = getelementptr inbounds nuw %struct.pointf_s, ptr %5, i32 0, i32 0
  store double %17, ptr %18, align 8, !tbaa !110
  %19 = getelementptr inbounds nuw %struct.pointf_s, ptr %6, i32 0, i32 1
  %20 = load double, ptr %19, align 8, !tbaa !111
  %21 = getelementptr inbounds nuw %struct.pointf_s, ptr %7, i32 0, i32 1
  %22 = load double, ptr %21, align 8, !tbaa !111
  %23 = fadd double %20, %22
  %24 = fdiv double %23, 2.000000e+00
  %25 = getelementptr inbounds nuw %struct.pointf_s, ptr %5, i32 0, i32 1
  store double %24, ptr %25, align 8, !tbaa !111
  %26 = load { double, double }, ptr %5, align 8
  ret { double, double } %26
}

; Function Attrs: nounwind uwtable
define i32 @wedgedEllipse(ptr noundef %0, ptr noundef %1, ptr noundef %2) #0 {
  %4 = alloca i32, align 4
  %5 = alloca ptr, align 8
  %6 = alloca ptr, align 8
  %7 = alloca ptr, align 8
  %8 = alloca %struct.colorsegs_t, align 8
  %9 = alloca i32, align 4
  %10 = alloca double, align 8
  %11 = alloca ptr, align 8
  %12 = alloca double, align 8
  %13 = alloca double, align 8
  %14 = alloca i32, align 4
  %15 = alloca %struct.pointf_s, align 8
  %16 = alloca %struct.pointf_s, align 8
  %17 = alloca i64, align 8
  %18 = alloca %struct.colorseg_t, align 8
  store ptr %0, ptr %5, align 8, !tbaa !12
  store ptr %1, ptr %6, align 8, !tbaa !105
  store ptr %2, ptr %7, align 8, !tbaa !9
  call void @llvm.lifetime.start.p0(i64 32, ptr %8) #15
  call void @llvm.lifetime.start.p0(i64 4, ptr %9) #15
  call void @llvm.lifetime.start.p0(i64 8, ptr %10) #15
  %19 = load ptr, ptr %5, align 8, !tbaa !12
  %20 = getelementptr inbounds nuw %struct.GVJ_s, ptr %19, i32 0, i32 4
  %21 = load ptr, ptr %20, align 8, !tbaa !16
  %22 = getelementptr inbounds nuw %struct.obj_state_s, ptr %21, i32 0, i32 11
  %23 = load double, ptr %22, align 8, !tbaa !47
  store double %23, ptr %10, align 8, !tbaa !106
  call void @llvm.lifetime.start.p0(i64 8, ptr %11) #15
  call void @llvm.lifetime.start.p0(i64 8, ptr %12) #15
  call void @llvm.lifetime.start.p0(i64 8, ptr %13) #15
  %24 = load ptr, ptr %7, align 8, !tbaa !9
  %25 = call i32 @parseSegs(ptr noundef %24, ptr noundef %8)
  store i32 %25, ptr %9, align 4, !tbaa !44
  %26 = load i32, ptr %9, align 4, !tbaa !44
  %27 = icmp eq i32 %26, 1
  br i1 %27, label %31, label %28

28:                                               ; preds = %3
  %29 = load i32, ptr %9, align 4, !tbaa !44
  %30 = icmp eq i32 %29, 2
  br i1 %30, label %31, label %33

31:                                               ; preds = %28, %3
  %32 = load i32, ptr %9, align 4, !tbaa !44
  store i32 %32, ptr %4, align 4
  store i32 1, ptr %14, align 4
  br label %137

33:                                               ; preds = %28
  call void @llvm.lifetime.start.p0(i64 16, ptr %15) #15
  %34 = load ptr, ptr %6, align 8, !tbaa !105
  %35 = getelementptr inbounds %struct.pointf_s, ptr %34, i64 0
  %36 = load ptr, ptr %6, align 8, !tbaa !105
  %37 = getelementptr inbounds %struct.pointf_s, ptr %36, i64 1
  %38 = getelementptr inbounds nuw { double, double }, ptr %35, i32 0, i32 0
  %39 = load double, ptr %38, align 8
  %40 = getelementptr inbounds nuw { double, double }, ptr %35, i32 0, i32 1
  %41 = load double, ptr %40, align 8
  %42 = getelementptr inbounds nuw { double, double }, ptr %37, i32 0, i32 0
  %43 = load double, ptr %42, align 8
  %44 = getelementptr inbounds nuw { double, double }, ptr %37, i32 0, i32 1
  %45 = load double, ptr %44, align 8
  %46 = call { double, double } @mid_pointf(double %39, double %41, double %43, double %45)
  %47 = getelementptr inbounds nuw { double, double }, ptr %15, i32 0, i32 0
  %48 = extractvalue { double, double } %46, 0
  store double %48, ptr %47, align 8
  %49 = getelementptr inbounds nuw { double, double }, ptr %15, i32 0, i32 1
  %50 = extractvalue { double, double } %46, 1
  store double %50, ptr %49, align 8
  call void @llvm.lifetime.start.p0(i64 16, ptr %16) #15
  %51 = load ptr, ptr %6, align 8, !tbaa !105
  %52 = getelementptr inbounds %struct.pointf_s, ptr %51, i64 1
  %53 = getelementptr inbounds nuw { double, double }, ptr %52, i32 0, i32 0
  %54 = load double, ptr %53, align 8
  %55 = getelementptr inbounds nuw { double, double }, ptr %52, i32 0, i32 1
  %56 = load double, ptr %55, align 8
  %57 = getelementptr inbounds nuw { double, double }, ptr %15, i32 0, i32 0
  %58 = load double, ptr %57, align 8
  %59 = getelementptr inbounds nuw { double, double }, ptr %15, i32 0, i32 1
  %60 = load double, ptr %59, align 8
  %61 = call { double, double } @sub_pointf(double %54, double %56, double %58, double %60)
  %62 = getelementptr inbounds nuw { double, double }, ptr %16, i32 0, i32 0
  %63 = extractvalue { double, double } %61, 0
  store double %63, ptr %62, align 8
  %64 = getelementptr inbounds nuw { double, double }, ptr %16, i32 0, i32 1
  %65 = extractvalue { double, double } %61, 1
  store double %65, ptr %64, align 8
  %66 = load double, ptr %10, align 8, !tbaa !106
  %67 = fcmp ogt double %66, 5.000000e-01
  br i1 %67, label %68, label %70

68:                                               ; preds = %33
  %69 = load ptr, ptr %5, align 8, !tbaa !12
  call void @gvrender_set_penwidth(ptr noundef %69, double noundef 5.000000e-01)
  br label %70

70:                                               ; preds = %68, %33
  store double 0.000000e+00, ptr %12, align 8, !tbaa !106
  call void @llvm.lifetime.start.p0(i64 8, ptr %17) #15
  store i64 0, ptr %17, align 8, !tbaa !49
  br label %71

71:                                               ; preds = %125, %70
  %72 = load i64, ptr %17, align 8, !tbaa !49
  %73 = call i64 @colorsegs_size(ptr noundef %8)
  %74 = icmp ult i64 %72, %73
  br i1 %74, label %76, label %75

75:                                               ; preds = %71
  store i32 2, ptr %14, align 4
  br label %128

76:                                               ; preds = %71
  call void @llvm.lifetime.start.p0(i64 24, ptr %18) #15
  %77 = load i64, ptr %17, align 8, !tbaa !49
  call void @colorsegs_get(ptr dead_on_unwind writable sret(%struct.colorseg_t) align 8 %18, ptr noundef %8, i64 noundef %77)
  %78 = getelementptr inbounds nuw %struct.colorseg_t, ptr %18, i32 0, i32 0
  %79 = load ptr, ptr %78, align 8, !tbaa !107
  %80 = icmp eq ptr %79, null
  br i1 %80, label %81, label %82

81:                                               ; preds = %76
  store i32 2, ptr %14, align 4
  br label %122

82:                                               ; preds = %76
  %83 = getelementptr inbounds nuw %struct.colorseg_t, ptr %18, i32 0, i32 1
  %84 = load double, ptr %83, align 8, !tbaa !109
  %85 = fcmp ole double %84, 0.000000e+00
  br i1 %85, label %86, label %87

86:                                               ; preds = %82
  store i32 4, ptr %14, align 4
  br label %122

87:                                               ; preds = %82
  %88 = load ptr, ptr %5, align 8, !tbaa !12
  %89 = getelementptr inbounds nuw %struct.colorseg_t, ptr %18, i32 0, i32 0
  %90 = load ptr, ptr %89, align 8, !tbaa !107
  call void @gvrender_set_fillcolor(ptr noundef %88, ptr noundef %90)
  %91 = load i64, ptr %17, align 8, !tbaa !49
  %92 = add i64 %91, 1
  %93 = call i64 @colorsegs_size(ptr noundef %8)
  %94 = icmp eq i64 %92, %93
  br i1 %94, label %95, label %96

95:                                               ; preds = %87
  store double 0x401921FB54442D18, ptr %13, align 8, !tbaa !106
  br label %101

96:                                               ; preds = %87
  %97 = load double, ptr %12, align 8, !tbaa !106
  %98 = getelementptr inbounds nuw %struct.colorseg_t, ptr %18, i32 0, i32 1
  %99 = load double, ptr %98, align 8, !tbaa !109
  %100 = call double @llvm.fmuladd.f64(double 0x401921FB54442D18, double %99, double %97)
  store double %100, ptr %13, align 8, !tbaa !106
  br label %101

101:                                              ; preds = %96, %95
  %102 = getelementptr inbounds nuw %struct.pointf_s, ptr %16, i32 0, i32 0
  %103 = load double, ptr %102, align 8, !tbaa !110
  %104 = getelementptr inbounds nuw %struct.pointf_s, ptr %16, i32 0, i32 1
  %105 = load double, ptr %104, align 8, !tbaa !111
  %106 = load double, ptr %12, align 8, !tbaa !106
  %107 = load double, ptr %13, align 8, !tbaa !106
  %108 = getelementptr inbounds nuw { double, double }, ptr %15, i32 0, i32 0
  %109 = load double, ptr %108, align 8
  %110 = getelementptr inbounds nuw { double, double }, ptr %15, i32 0, i32 1
  %111 = load double, ptr %110, align 8
  %112 = call ptr @ellipticWedge(double %109, double %111, double noundef %103, double noundef %105, double noundef %106, double noundef %107)
  store ptr %112, ptr %11, align 8, !tbaa !112
  %113 = load ptr, ptr %5, align 8, !tbaa !12
  %114 = load ptr, ptr %11, align 8, !tbaa !112
  %115 = getelementptr inbounds nuw %struct.Ppoly_t, ptr %114, i32 0, i32 0
  %116 = load ptr, ptr %115, align 8, !tbaa !114
  %117 = load ptr, ptr %11, align 8, !tbaa !112
  %118 = getelementptr inbounds nuw %struct.Ppoly_t, ptr %117, i32 0, i32 1
  %119 = load i64, ptr %118, align 8, !tbaa !116
  call void @gvrender_beziercurve(ptr noundef %113, ptr noundef %116, i64 noundef %119, i32 noundef 1)
  %120 = load double, ptr %13, align 8, !tbaa !106
  store double %120, ptr %12, align 8, !tbaa !106
  %121 = load ptr, ptr %11, align 8, !tbaa !112
  call void @freePath(ptr noundef %121)
  store i32 0, ptr %14, align 4
  br label %122

122:                                              ; preds = %101, %86, %81
  call void @llvm.lifetime.end.p0(i64 24, ptr %18) #15
  %123 = load i32, ptr %14, align 4
  switch i32 %123, label %128 [
    i32 0, label %124
    i32 4, label %125
  ]

124:                                              ; preds = %122
  br label %125

125:                                              ; preds = %124, %122
  %126 = load i64, ptr %17, align 8, !tbaa !49
  %127 = add i64 %126, 1
  store i64 %127, ptr %17, align 8, !tbaa !49
  br label %71, !llvm.loop !117

128:                                              ; preds = %122, %75
  call void @llvm.lifetime.end.p0(i64 8, ptr %17) #15
  br label %129

129:                                              ; preds = %128
  %130 = load double, ptr %10, align 8, !tbaa !106
  %131 = fcmp ogt double %130, 5.000000e-01
  br i1 %131, label %132, label %135

132:                                              ; preds = %129
  %133 = load ptr, ptr %5, align 8, !tbaa !12
  %134 = load double, ptr %10, align 8, !tbaa !106
  call void @gvrender_set_penwidth(ptr noundef %133, double noundef %134)
  br label %135

135:                                              ; preds = %132, %129
  call void @colorsegs_free(ptr noundef %8)
  %136 = load i32, ptr %9, align 4, !tbaa !44
  store i32 %136, ptr %4, align 4
  store i32 1, ptr %14, align 4
  call void @llvm.lifetime.end.p0(i64 16, ptr %16) #15
  call void @llvm.lifetime.end.p0(i64 16, ptr %15) #15
  br label %137

137:                                              ; preds = %135, %31
  call void @llvm.lifetime.end.p0(i64 8, ptr %13) #15
  call void @llvm.lifetime.end.p0(i64 8, ptr %12) #15
  call void @llvm.lifetime.end.p0(i64 8, ptr %11) #15
  call void @llvm.lifetime.end.p0(i64 8, ptr %10) #15
  call void @llvm.lifetime.end.p0(i64 4, ptr %9) #15
  call void @llvm.lifetime.end.p0(i64 32, ptr %8) #15
  %138 = load i32, ptr %4, align 4
  ret i32 %138
}