; Function Attrs: nounwind uwtable
define i32 @wedgedEllipse(ptr noundef %0, ptr noundef readonly captures(none) %1, ptr noundef %2) local_unnamed_addr #0 {
  %4 = alloca %struct.colorsegs_t, align 8
  call void @llvm.lifetime.start.p0(i64 32, ptr nonnull %4) #27
  %5 = getelementptr inbounds nuw i8, ptr %0, i64 32
  %6 = load ptr, ptr %5, align 8, !tbaa !9
  %7 = getelementptr inbounds nuw i8, ptr %6, i64 176
  %8 = load double, ptr %7, align 8, !tbaa !42
  %9 = call fastcc i32 @parseSegs(ptr noundef %2, ptr noundef %4)
  %10 = add i32 %9, -1
  %or.cond = icmp ult i32 %10, 2
  br i1 %or.cond, label %61, label %11

11:                                               ; preds = %3
  %12 = getelementptr inbounds nuw i8, ptr %1, i64 16
  %13 = load double, ptr %1, align 8
  %14 = getelementptr inbounds nuw i8, ptr %1, i64 8
  %15 = load double, ptr %14, align 8
  %16 = load double, ptr %12, align 8
  %17 = getelementptr inbounds nuw i8, ptr %1, i64 24
  %18 = load double, ptr %17, align 8
  %19 = fadd double %13, %16
  %20 = fmul double %19, 5.000000e-01
  %21 = fadd double %15, %18
  %22 = fmul double %21, 5.000000e-01
  %23 = fsub double %16, %20
  %24 = fsub double %18, %22
  %25 = fcmp ogt double %8, 5.000000e-01
  br i1 %25, label %26, label %27

26:                                               ; preds = %11
  tail call void @gvrender_set_penwidth(ptr noundef nonnull %0, double noundef 5.000000e-01) #27
  br label %27

27:                                               ; preds = %26, %11
  %28 = getelementptr inbounds nuw i8, ptr %4, i64 16
  %.val = load i64, ptr %28, align 8, !tbaa !100
  %.not = icmp eq i64 %.val, 0
  br i1 %.not, label %._crit_edge, label %.lr.ph

.lr.ph:                                           ; preds = %27
  %29 = load ptr, ptr %4, align 8, !tbaa !102, !noalias !103
  %30 = getelementptr inbounds nuw i8, ptr %4, i64 8
  %31 = load i64, ptr %30, align 8, !tbaa !106, !noalias !103
  %32 = getelementptr inbounds nuw i8, ptr %4, i64 24
  %33 = load i64, ptr %32, align 8, !tbaa !107, !noalias !103
  br label %34

34:                                               ; preds = %.lr.ph, %49
  %.046 = phi i64 [ 0, %.lr.ph ], [ %.pre-phi, %49 ]
  %.03345 = phi double [ 0.000000e+00, %.lr.ph ], [ %.1.ph, %49 ]
  %35 = add i64 %31, %.046
  %36 = urem i64 %35, %33
  %37 = getelementptr inbounds nuw %struct.colorseg_t, ptr %29, i64 %36
  %.sroa.0.0.copyload = load ptr, ptr %37, align 8, !tbaa !97
  %.sroa.4.0..sroa_idx = getelementptr inbounds nuw i8, ptr %37, i64 8
  %.sroa.4.0.copyload = load double, ptr %.sroa.4.0..sroa_idx, align 8, !tbaa !108
  %38 = icmp eq ptr %.sroa.0.0.copyload, null
  br i1 %38, label %._crit_edge, label %39

39:                                               ; preds = %34
  %40 = fcmp ugt double %.sroa.4.0.copyload, 0.000000e+00
  br i1 %40, label %41, label %._crit_edge50

._crit_edge50:                                    ; preds = %39
  %.pre51 = add nuw i64 %.046, 1
  br label %49

41:                                               ; preds = %39
  tail call void @gvrender_set_fillcolor(ptr noundef %0, ptr noundef nonnull %.sroa.0.0.copyload) #27
  %42 = add nuw i64 %.046, 1
  %43 = icmp eq i64 %42, %.val
  %44 = tail call double @llvm.fmuladd.f64(double %.sroa.4.0.copyload, double 0x401921FB54442D18, double %.03345)
  %.034 = select i1 %43, double 0x401921FB54442D18, double %44
  %45 = tail call ptr @ellipticWedge(double %20, double %22, double noundef %23, double noundef %24, double noundef %.03345, double noundef %.034) #27
  %46 = load ptr, ptr %45, align 8, !tbaa !109
  %47 = getelementptr inbounds nuw i8, ptr %45, i64 8
  %48 = load i64, ptr %47, align 8, !tbaa !111
  tail call void @gvrender_beziercurve(ptr noundef %0, ptr noundef %46, i64 noundef %48, i32 noundef 1) #27
  tail call void @freePath(ptr noundef nonnull %45) #27
  br label %49

49:                                               ; preds = %._crit_edge50, %41
  %.pre-phi = phi i64 [ %.pre51, %._crit_edge50 ], [ %42, %41 ]
  %.1.ph = phi double [ %.03345, %._crit_edge50 ], [ %.034, %41 ]
  %exitcond.not = icmp eq i64 %.pre-phi, %.val
  br i1 %exitcond.not, label %._crit_edge, label %34, !llvm.loop !112

._crit_edge:                                      ; preds = %49, %34, %27
  br i1 %25, label %50, label %51

50:                                               ; preds = %._crit_edge
  tail call void @gvrender_set_penwidth(ptr noundef %0, double noundef %8) #27
  br label %51

51:                                               ; preds = %50, %._crit_edge
  %.pre = load ptr, ptr %4, align 8, !tbaa !102
  br i1 %.not, label %colorsegs_free.exit, label %.lr.ph.i.i

.lr.ph.i.i:                                       ; preds = %51
  %52 = getelementptr inbounds nuw i8, ptr %4, i64 8
  %53 = getelementptr inbounds nuw i8, ptr %4, i64 24
  %54 = load i64, ptr %52, align 8, !tbaa !106, !noalias !114
  %55 = load i64, ptr %53, align 8, !tbaa !107, !noalias !114
  br label %56

56:                                               ; preds = %56, %.lr.ph.i.i
  %.06.i.i = phi i64 [ 0, %.lr.ph.i.i ], [ %60, %56 ]
  %57 = add i64 %54, %.06.i.i
  %58 = urem i64 %57, %55
  %59 = getelementptr inbounds nuw %struct.colorseg_t, ptr %.pre, i64 %58
  %.sroa.0.0.copyload.i.i = load ptr, ptr %59, align 8, !tbaa !97
  tail call void @free(ptr noundef %.sroa.0.0.copyload.i.i) #27
  %60 = add nuw i64 %.06.i.i, 1
  %exitcond49.not = icmp eq i64 %60, %.val
  br i1 %exitcond49.not, label %colorsegs_free.exit, label %56, !llvm.loop !117

colorsegs_free.exit:                              ; preds = %56, %51
  tail call void @free(ptr noundef %.pre) #27
  br label %61

61:                                               ; preds = %3, %colorsegs_free.exit
  call void @llvm.lifetime.end.p0(i64 32, ptr nonnull %4) #27
  ret i32 %9
}